
buf2:     file format elf32-i386


Disassembly of section .init:

08048344 <_init>:
 8048344:	53                   	push   %ebx
 8048345:	83 ec 08             	sub    $0x8,%esp
 8048348:	e8 d3 00 00 00       	call   8048420 <__x86.get_pc_thunk.bx>
 804834d:	81 c3 b3 1c 00 00    	add    $0x1cb3,%ebx
 8048353:	8b 83 fc ff ff ff    	mov    -0x4(%ebx),%eax
 8048359:	85 c0                	test   %eax,%eax
 804835b:	74 05                	je     8048362 <_init+0x1e>
 804835d:	e8 7e 00 00 00       	call   80483e0 <.plt.got>
 8048362:	83 c4 08             	add    $0x8,%esp
 8048365:	5b                   	pop    %ebx
 8048366:	c3                   	ret    

Disassembly of section .plt:

08048370 <.plt>:
 8048370:	ff 35 04 a0 04 08    	pushl  0x804a004
 8048376:	ff 25 08 a0 04 08    	jmp    *0x804a008
 804837c:	00 00                	add    %al,(%eax)
	...

08048380 <printf@plt>:
 8048380:	ff 25 0c a0 04 08    	jmp    *0x804a00c
 8048386:	68 00 00 00 00       	push   $0x0
 804838b:	e9 e0 ff ff ff       	jmp    8048370 <.plt>

08048390 <fread@plt>:
 8048390:	ff 25 10 a0 04 08    	jmp    *0x804a010
 8048396:	68 08 00 00 00       	push   $0x8
 804839b:	e9 d0 ff ff ff       	jmp    8048370 <.plt>

080483a0 <strcpy@plt>:
 80483a0:	ff 25 14 a0 04 08    	jmp    *0x804a014
 80483a6:	68 10 00 00 00       	push   $0x10
 80483ab:	e9 c0 ff ff ff       	jmp    8048370 <.plt>

080483b0 <puts@plt>:
 80483b0:	ff 25 18 a0 04 08    	jmp    *0x804a018
 80483b6:	68 18 00 00 00       	push   $0x18
 80483bb:	e9 b0 ff ff ff       	jmp    8048370 <.plt>

080483c0 <__libc_start_main@plt>:
 80483c0:	ff 25 1c a0 04 08    	jmp    *0x804a01c
 80483c6:	68 20 00 00 00       	push   $0x20
 80483cb:	e9 a0 ff ff ff       	jmp    8048370 <.plt>

080483d0 <fopen@plt>:
 80483d0:	ff 25 20 a0 04 08    	jmp    *0x804a020
 80483d6:	68 28 00 00 00       	push   $0x28
 80483db:	e9 90 ff ff ff       	jmp    8048370 <.plt>

Disassembly of section .plt.got:

080483e0 <.plt.got>:
 80483e0:	ff 25 fc 9f 04 08    	jmp    *0x8049ffc
 80483e6:	66 90                	xchg   %ax,%ax

Disassembly of section .text:

080483f0 <_start>:
 80483f0:	31 ed                	xor    %ebp,%ebp
 80483f2:	5e                   	pop    %esi
 80483f3:	89 e1                	mov    %esp,%ecx
 80483f5:	83 e4 f0             	and    $0xfffffff0,%esp
 80483f8:	50                   	push   %eax
 80483f9:	54                   	push   %esp
 80483fa:	52                   	push   %edx
 80483fb:	68 f0 85 04 08       	push   $0x80485f0
 8048400:	68 90 85 04 08       	push   $0x8048590
 8048405:	51                   	push   %ecx
 8048406:	56                   	push   %esi
 8048407:	68 1a 85 04 08       	push   $0x804851a
 804840c:	e8 af ff ff ff       	call   80483c0 <__libc_start_main@plt>
 8048411:	f4                   	hlt    
 8048412:	66 90                	xchg   %ax,%ax
 8048414:	66 90                	xchg   %ax,%ax
 8048416:	66 90                	xchg   %ax,%ax
 8048418:	66 90                	xchg   %ax,%ax
 804841a:	66 90                	xchg   %ax,%ax
 804841c:	66 90                	xchg   %ax,%ax
 804841e:	66 90                	xchg   %ax,%ax

08048420 <__x86.get_pc_thunk.bx>:
 8048420:	8b 1c 24             	mov    (%esp),%ebx
 8048423:	c3                   	ret    
 8048424:	66 90                	xchg   %ax,%ax
 8048426:	66 90                	xchg   %ax,%ax
 8048428:	66 90                	xchg   %ax,%ax
 804842a:	66 90                	xchg   %ax,%ax
 804842c:	66 90                	xchg   %ax,%ax
 804842e:	66 90                	xchg   %ax,%ax

08048430 <deregister_tm_clones>:
 8048430:	b8 2f a0 04 08       	mov    $0x804a02f,%eax
 8048435:	2d 2c a0 04 08       	sub    $0x804a02c,%eax
 804843a:	83 f8 06             	cmp    $0x6,%eax
 804843d:	76 1a                	jbe    8048459 <deregister_tm_clones+0x29>
 804843f:	b8 00 00 00 00       	mov    $0x0,%eax
 8048444:	85 c0                	test   %eax,%eax
 8048446:	74 11                	je     8048459 <deregister_tm_clones+0x29>
 8048448:	55                   	push   %ebp
 8048449:	89 e5                	mov    %esp,%ebp
 804844b:	83 ec 14             	sub    $0x14,%esp
 804844e:	68 2c a0 04 08       	push   $0x804a02c
 8048453:	ff d0                	call   *%eax
 8048455:	83 c4 10             	add    $0x10,%esp
 8048458:	c9                   	leave  
 8048459:	f3 c3                	repz ret 
 804845b:	90                   	nop
 804845c:	8d 74 26 00          	lea    0x0(%esi,%eiz,1),%esi

08048460 <register_tm_clones>:
 8048460:	b8 2c a0 04 08       	mov    $0x804a02c,%eax
 8048465:	2d 2c a0 04 08       	sub    $0x804a02c,%eax
 804846a:	c1 f8 02             	sar    $0x2,%eax
 804846d:	89 c2                	mov    %eax,%edx
 804846f:	c1 ea 1f             	shr    $0x1f,%edx
 8048472:	01 d0                	add    %edx,%eax
 8048474:	d1 f8                	sar    %eax
 8048476:	74 1b                	je     8048493 <register_tm_clones+0x33>
 8048478:	ba 00 00 00 00       	mov    $0x0,%edx
 804847d:	85 d2                	test   %edx,%edx
 804847f:	74 12                	je     8048493 <register_tm_clones+0x33>
 8048481:	55                   	push   %ebp
 8048482:	89 e5                	mov    %esp,%ebp
 8048484:	83 ec 10             	sub    $0x10,%esp
 8048487:	50                   	push   %eax
 8048488:	68 2c a0 04 08       	push   $0x804a02c
 804848d:	ff d2                	call   *%edx
 804848f:	83 c4 10             	add    $0x10,%esp
 8048492:	c9                   	leave  
 8048493:	f3 c3                	repz ret 
 8048495:	8d 74 26 00          	lea    0x0(%esi,%eiz,1),%esi
 8048499:	8d bc 27 00 00 00 00 	lea    0x0(%edi,%eiz,1),%edi

080484a0 <__do_global_dtors_aux>:
 80484a0:	80 3d 2c a0 04 08 00 	cmpb   $0x0,0x804a02c
 80484a7:	75 13                	jne    80484bc <__do_global_dtors_aux+0x1c>
 80484a9:	55                   	push   %ebp
 80484aa:	89 e5                	mov    %esp,%ebp
 80484ac:	83 ec 08             	sub    $0x8,%esp
 80484af:	e8 7c ff ff ff       	call   8048430 <deregister_tm_clones>
 80484b4:	c6 05 2c a0 04 08 01 	movb   $0x1,0x804a02c
 80484bb:	c9                   	leave  
 80484bc:	f3 c3                	repz ret 
 80484be:	66 90                	xchg   %ax,%ax

080484c0 <frame_dummy>:
 80484c0:	b8 10 9f 04 08       	mov    $0x8049f10,%eax
 80484c5:	8b 10                	mov    (%eax),%edx
 80484c7:	85 d2                	test   %edx,%edx
 80484c9:	75 05                	jne    80484d0 <frame_dummy+0x10>
 80484cb:	eb 93                	jmp    8048460 <register_tm_clones>
 80484cd:	8d 76 00             	lea    0x0(%esi),%esi
 80484d0:	ba 00 00 00 00       	mov    $0x0,%edx
 80484d5:	85 d2                	test   %edx,%edx
 80484d7:	74 f2                	je     80484cb <frame_dummy+0xb>
 80484d9:	55                   	push   %ebp
 80484da:	89 e5                	mov    %esp,%ebp
 80484dc:	83 ec 14             	sub    $0x14,%esp
 80484df:	50                   	push   %eax
 80484e0:	ff d2                	call   *%edx
 80484e2:	83 c4 10             	add    $0x10,%esp
 80484e5:	c9                   	leave  
 80484e6:	e9 75 ff ff ff       	jmp    8048460 <register_tm_clones>

080484eb <vul>:
 80484eb:	55                   	push   %ebp
 80484ec:	89 e5                	mov    %esp,%ebp
 80484ee:	83 ec 38             	sub    $0x38,%esp
 80484f1:	83 ec 08             	sub    $0x8,%esp
 80484f4:	8d 45 d4             	lea    -0x2c(%ebp),%eax
 80484f7:	50                   	push   %eax
 80484f8:	68 10 86 04 08       	push   $0x8048610
 80484fd:	e8 7e fe ff ff       	call   8048380 <printf@plt>
 8048502:	83 c4 10             	add    $0x10,%esp
 8048505:	83 ec 08             	sub    $0x8,%esp
 8048508:	ff 75 08             	pushl  0x8(%ebp)
 804850b:	8d 45 d4             	lea    -0x2c(%ebp),%eax
 804850e:	50                   	push   %eax
 804850f:	e8 8c fe ff ff       	call   80483a0 <strcpy@plt>
 8048514:	83 c4 10             	add    $0x10,%esp
 8048517:	90                   	nop
 8048518:	c9                   	leave  
 8048519:	c3                   	ret    

0804851a <main>:
 804851a:	8d 4c 24 04          	lea    0x4(%esp),%ecx
 804851e:	83 e4 f0             	and    $0xfffffff0,%esp
 8048521:	ff 71 fc             	pushl  -0x4(%ecx)
 8048524:	55                   	push   %ebp
 8048525:	89 e5                	mov    %esp,%ebp
 8048527:	51                   	push   %ecx
 8048528:	81 ec 94 00 00 00    	sub    $0x94,%esp
 804852e:	83 ec 08             	sub    $0x8,%esp
 8048531:	68 1c 86 04 08       	push   $0x804861c
 8048536:	68 1e 86 04 08       	push   $0x804861e
 804853b:	e8 90 fe ff ff       	call   80483d0 <fopen@plt>
 8048540:	83 c4 10             	add    $0x10,%esp
 8048543:	89 45 f4             	mov    %eax,-0xc(%ebp)
 8048546:	ff 75 f4             	pushl  -0xc(%ebp)
 8048549:	68 80 00 00 00       	push   $0x80
 804854e:	6a 01                	push   $0x1
 8048550:	8d 85 74 ff ff ff    	lea    -0x8c(%ebp),%eax
 8048556:	50                   	push   %eax
 8048557:	e8 34 fe ff ff       	call   8048390 <fread@plt>
 804855c:	83 c4 10             	add    $0x10,%esp
 804855f:	83 ec 0c             	sub    $0xc,%esp
 8048562:	8d 85 74 ff ff ff    	lea    -0x8c(%ebp),%eax
 8048568:	50                   	push   %eax
 8048569:	e8 7d ff ff ff       	call   80484eb <vul>
 804856e:	83 c4 10             	add    $0x10,%esp
 8048571:	83 ec 0c             	sub    $0xc,%esp
 8048574:	68 2c 86 04 08       	push   $0x804862c
 8048579:	e8 32 fe ff ff       	call   80483b0 <puts@plt>
 804857e:	83 c4 10             	add    $0x10,%esp
 8048581:	b8 00 00 00 00       	mov    $0x0,%eax
 8048586:	8b 4d fc             	mov    -0x4(%ebp),%ecx
 8048589:	c9                   	leave  
 804858a:	8d 61 fc             	lea    -0x4(%ecx),%esp
 804858d:	c3                   	ret    
 804858e:	66 90                	xchg   %ax,%ax

08048590 <__libc_csu_init>:
 8048590:	55                   	push   %ebp
 8048591:	57                   	push   %edi
 8048592:	56                   	push   %esi
 8048593:	53                   	push   %ebx
 8048594:	e8 87 fe ff ff       	call   8048420 <__x86.get_pc_thunk.bx>
 8048599:	81 c3 67 1a 00 00    	add    $0x1a67,%ebx
 804859f:	83 ec 0c             	sub    $0xc,%esp
 80485a2:	8b 6c 24 20          	mov    0x20(%esp),%ebp
 80485a6:	8d b3 0c ff ff ff    	lea    -0xf4(%ebx),%esi
 80485ac:	e8 93 fd ff ff       	call   8048344 <_init>
 80485b1:	8d 83 08 ff ff ff    	lea    -0xf8(%ebx),%eax
 80485b7:	29 c6                	sub    %eax,%esi
 80485b9:	c1 fe 02             	sar    $0x2,%esi
 80485bc:	85 f6                	test   %esi,%esi
 80485be:	74 25                	je     80485e5 <__libc_csu_init+0x55>
 80485c0:	31 ff                	xor    %edi,%edi
 80485c2:	8d b6 00 00 00 00    	lea    0x0(%esi),%esi
 80485c8:	83 ec 04             	sub    $0x4,%esp
 80485cb:	ff 74 24 2c          	pushl  0x2c(%esp)
 80485cf:	ff 74 24 2c          	pushl  0x2c(%esp)
 80485d3:	55                   	push   %ebp
 80485d4:	ff 94 bb 08 ff ff ff 	call   *-0xf8(%ebx,%edi,4)
 80485db:	83 c7 01             	add    $0x1,%edi
 80485de:	83 c4 10             	add    $0x10,%esp
 80485e1:	39 fe                	cmp    %edi,%esi
 80485e3:	75 e3                	jne    80485c8 <__libc_csu_init+0x38>
 80485e5:	83 c4 0c             	add    $0xc,%esp
 80485e8:	5b                   	pop    %ebx
 80485e9:	5e                   	pop    %esi
 80485ea:	5f                   	pop    %edi
 80485eb:	5d                   	pop    %ebp
 80485ec:	c3                   	ret    
 80485ed:	8d 76 00             	lea    0x0(%esi),%esi

080485f0 <__libc_csu_fini>:
 80485f0:	f3 c3                	repz ret 

Disassembly of section .fini:

080485f4 <_fini>:
 80485f4:	53                   	push   %ebx
 80485f5:	83 ec 08             	sub    $0x8,%esp
 80485f8:	e8 23 fe ff ff       	call   8048420 <__x86.get_pc_thunk.bx>
 80485fd:	81 c3 03 1a 00 00    	add    $0x1a03,%ebx
 8048603:	83 c4 08             	add    $0x8,%esp
 8048606:	5b                   	pop    %ebx
 8048607:	c3                   	ret    
